target datalayout = "e-m:e-p270:32:32-p271:32:32-p272:64:64-i64:64-i128:128-f80:128-n8:16:32:64-S128"
target triple = "x86_64-pc-linux-gnu"

%union.SourceSpan = type { i64 }
%struct.Int = type { %struct.Int128_, i32 }
%struct.Int128_ = type { i64, i64 }
%struct.VHeader_ = type { i32, i32, [0 x i8] }
%struct.Expr_ = type { ptr, %union.SourceSpan, i16, %union.anon.61 }
%union.anon.61 = type { %struct.ExprAnySwitch }
%struct.ExprAnySwitch = type { i8, %union.anon.63 }
%union.anon.63 = type { %struct.anon.64 }
%struct.anon.64 = type { ptr, %union.SourceSpan, ptr }
%struct.Type_ = type { i32, ptr, ptr, ptr, %union.anon.86, ptr, ptr, %union.anon.88 }
%union.anon.86 = type { ptr }
%union.anon.88 = type { %struct.TypeFunction }
%struct.TypeFunction = type { ptr, ptr, ptr }
%struct.ExprConst = type { i16, %union.anon.70 }
%union.anon.70 = type { %struct.Int }
%struct.Decl_ = type { ptr, ptr, %union.SourceSpan, i64, %union.anon, i32, %union.anon.0, i64, ptr, ptr, ptr, %union.anon.1 }
%union.anon = type { ptr }
%union.anon.0 = type { i16 }
%union.anon.1 = type { %struct.FuncDecl }
%struct.FuncDecl = type { i32, [4 x i8], %struct.Signature_, i32, i32, %union.anon.8 }
%struct.Signature_ = type <{ %struct.CalleeAttributes, i16, i8, i32, i32, [4 x i8], ptr }>
%struct.CalleeAttributes = type { i8 }
%union.anon.8 = type { %struct.anon.9 }
%struct.anon.9 = type { i16, %union.anon.10 }
%union.anon.10 = type { ptr }
%struct.anon.2 = type { ptr, ptr, %union.anon.3 }
%union.anon.3 = type { %struct.BitStructDecl }
%struct.BitStructDecl = type { ptr, ptr, i8 }
%struct.StructDecl = type { i32, ptr, i32, i16 }
%struct.anon.72 = type { i32, i32, ptr }

@type_untypedlist = external global ptr, align 8
@type_member = external global ptr, align 8

; Function Attrs: nounwind uwtable
define internal ptr @expand_(ptr noundef %0, i64 noundef %1) #0 {
  %3 = alloca ptr, align 8
  %4 = alloca i64, align 8
  %5 = alloca ptr, align 8
  %6 = alloca ptr, align 8
  %7 = alloca i64, align 8
  store ptr %0, ptr %3, align 8
  store i64 %1, ptr %4, align 8
  %8 = load ptr, ptr %3, align 8
  %9 = icmp ne ptr %8, null
  br i1 %9, label %13, label %10

10:                                               ; preds = %2
  %11 = load i64, ptr %4, align 8
  %12 = call ptr @vec_new_(i64 noundef %11, i64 noundef 8)
  store ptr %12, ptr %5, align 8
  br label %16

13:                                               ; preds = %2
  %14 = load ptr, ptr %3, align 8
  %15 = getelementptr inbounds %struct.VHeader_, ptr %14, i64 -1
  store ptr %15, ptr %5, align 8
  br label %16

16:                                               ; preds = %13, %10
  %17 = load ptr, ptr %5, align 8
  %18 = getelementptr inbounds %struct.VHeader_, ptr %17, i32 0, i32 0
  %19 = load i32, ptr %18, align 4
  %20 = load ptr, ptr %5, align 8
  %21 = getelementptr inbounds %struct.VHeader_, ptr %20, i32 0, i32 1
  %22 = load i32, ptr %21, align 4
  %23 = icmp eq i32 %19, %22
  br i1 %23, label %24, label %49

24:                                               ; preds = %16
  %25 = load i64, ptr %4, align 8
  %26 = load ptr, ptr %5, align 8
  %27 = getelementptr inbounds %struct.VHeader_, ptr %26, i32 0, i32 1
  %28 = load i32, ptr %27, align 4
  %29 = shl i32 %28, 1
  %30 = zext i32 %29 to i64
  %31 = call ptr @vec_new_(i64 noundef %25, i64 noundef %30)
  store ptr %31, ptr %6, align 8
  %32 = load i64, ptr %4, align 8
  %33 = load ptr, ptr %5, align 8
  %34 = getelementptr inbounds %struct.VHeader_, ptr %33, i32 0, i32 1
  %35 = load i32, ptr %34, align 4
  %36 = zext i32 %35 to i64
  %37 = mul i64 %32, %36
  %38 = add i64 %37, 8
  store i64 %38, ptr %7, align 8
  %39 = load ptr, ptr %6, align 8
  %40 = load ptr, ptr %5, align 8
  %41 = load i64, ptr %7, align 8
  call void @llvm.memcpy.p0.p0.i64(ptr align 4 %39, ptr align 4 %40, i64 %41, i1 false)
  %42 = load ptr, ptr %6, align 8
  store ptr %42, ptr %5, align 8
  %43 = load ptr, ptr %5, align 8
  %44 = getelementptr inbounds %struct.VHeader_, ptr %43, i32 0, i32 1
  %45 = load i32, ptr %44, align 4
  %46 = shl i32 %45, 1
  %47 = load ptr, ptr %6, align 8
  %48 = getelementptr inbounds %struct.VHeader_, ptr %47, i32 0, i32 1
  store i32 %46, ptr %48, align 4
  br label %49

49:                                               ; preds = %24, %16
  %50 = load ptr, ptr %5, align 8
  %51 = getelementptr inbounds %struct.VHeader_, ptr %50, i32 0, i32 0
  %52 = load i32, ptr %51, align 4
  %53 = add i32 %52, 1
  store i32 %53, ptr %51, align 4
  %54 = load ptr, ptr %5, align 8
  %55 = getelementptr inbounds %struct.VHeader_, ptr %54, i64 1
  ret ptr %55
}

; Function Attrs: nounwind uwtable
define internal ptr @vec_new_(i64 noundef %0, i64 noundef %1) #0 {
  %3 = alloca i64, align 8
  %4 = alloca i64, align 8
  %5 = alloca ptr, align 8
  store i64 %0, ptr %3, align 8
  store i64 %1, ptr %4, align 8
  %6 = load i64, ptr %3, align 8
  %7 = load i64, ptr %4, align 8
  %8 = mul i64 %6, %7
  %9 = add i64 %8, 8
  %10 = call ptr @calloc_arena(i64 noundef %9)
  store ptr %10, ptr %5, align 8
  %11 = load i64, ptr %4, align 8
  %12 = trunc i64 %11 to i32
  %13 = load ptr, ptr %5, align 8
  %14 = getelementptr inbounds %struct.VHeader_, ptr %13, i32 0, i32 1
  store i32 %12, ptr %14, align 4
  %15 = load ptr, ptr %5, align 8
  ret ptr %15
}

; Function Attrs: nounwind uwtable
define internal void @sema_create_const_membersof(ptr noundef %0, ptr noundef %1, ptr noundef %2, i32 noundef %3, i32 noundef %4) #0 {
  %6 = alloca ptr, align 8
  %7 = alloca ptr, align 8
  %8 = alloca %struct.ExprConst, align 8
  %9 = alloca ptr, align 8
  %10 = alloca ptr, align 8
  %11 = alloca %struct.ExprConst, align 8
  %12 = alloca ptr, align 8
  %13 = alloca i32, align 4
  %14 = alloca i32, align 4
  %15 = alloca ptr, align 8
  %16 = alloca ptr, align 8
  %17 = alloca i32, align 4
  %18 = alloca ptr, align 8
  %19 = alloca ptr, align 8
  %20 = alloca ptr, align 8
  %21 = alloca ptr, align 8
  %22 = alloca ptr, align 8
  %23 = alloca i32, align 4
  %24 = alloca i32, align 4
  %25 = alloca ptr, align 8
  %26 = alloca i32, align 4
  %27 = alloca ptr, align 8
  %28 = alloca i32, align 4
  %29 = alloca ptr, align 8
  %30 = alloca ptr, align 8
  %31 = alloca %struct.ExprConst, align 8
  %32 = alloca ptr, align 8
  store ptr %0, ptr %20, align 8
  store ptr %1, ptr %21, align 8
  store ptr %2, ptr %22, align 8
  store i32 %3, ptr %23, align 4
  store i32 %4, ptr %24, align 4
  store ptr null, ptr %25, align 8
  %33 = load ptr, ptr %22, align 8
  store ptr %33, ptr %12, align 8
  %34 = load ptr, ptr %12, align 8
  %35 = load i32, ptr %34, align 8
  store i32 %35, ptr %13, align 4
  %36 = load i32, ptr %13, align 4
  %37 = icmp eq i32 %36, 31
  br i1 %37, label %38, label %43

38:                                               ; preds = %5
  %39 = load ptr, ptr %12, align 8
  %40 = getelementptr inbounds %struct.Type_, ptr %39, i32 0, i32 1
  %41 = load ptr, ptr %40, align 8
  %42 = load i32, ptr %41, align 8
  store i32 %42, ptr %13, align 4
  br label %43

43:                                               ; preds = %38, %5
  %44 = load i32, ptr %13, align 4
  %45 = icmp eq i32 %44, 27
  br i1 %45, label %49, label %46

46:                                               ; preds = %43
  %47 = load i32, ptr %13, align 4
  %48 = icmp eq i32 %47, 26
  br label %49

49:                                               ; preds = %46, %43
  %50 = phi i1 [ true, %43 ], [ %48, %46 ]
  br i1 %50, label %51, label %59

51:                                               ; preds = %49
  %52 = load ptr, ptr %22, align 8
  %53 = getelementptr inbounds %struct.Type_, ptr %52, i32 0, i32 7
  %54 = load ptr, ptr %53, align 8
  %55 = getelementptr inbounds %struct.Decl_, ptr %54, i32 0, i32 11
  %56 = getelementptr inbounds %struct.anon.2, ptr %55, i32 0, i32 2
  %57 = getelementptr inbounds %struct.StructDecl, ptr %56, i32 0, i32 1
  %58 = load ptr, ptr %57, align 8
  store ptr %58, ptr %25, align 8
  br label %98

59:                                               ; preds = %49
  %60 = load ptr, ptr %22, align 8
  %61 = getelementptr inbounds %struct.Type_, ptr %60, i32 0, i32 0
  %62 = load i32, ptr %61, align 8
  %63 = icmp eq i32 %62, 29
  br i1 %63, label %64, label %72

64:                                               ; preds = %59
  %65 = load ptr, ptr %22, align 8
  %66 = getelementptr inbounds %struct.Type_, ptr %65, i32 0, i32 7
  %67 = load ptr, ptr %66, align 8
  %68 = getelementptr inbounds %struct.Decl_, ptr %67, i32 0, i32 11
  %69 = getelementptr inbounds %struct.anon.2, ptr %68, i32 0, i32 2
  %70 = getelementptr inbounds %struct.BitStructDecl, ptr %69, i32 0, i32 1
  %71 = load ptr, ptr %70, align 8
  store ptr %71, ptr %25, align 8
  br label %97

72:                                               ; preds = %59
  %73 = load ptr, ptr %21, align 8
  store ptr %73, ptr %6, align 8
  store ptr null, ptr %7, align 8
  %74 = load ptr, ptr %6, align 8
  %75 = getelementptr inbounds %struct.Expr_, ptr %74, i32 0, i32 2
  %76 = load i16, ptr %75, align 8
  %77 = and i16 %76, -256
  %78 = or i16 %77, 14
  store i16 %78, ptr %75, align 8
  %79 = load ptr, ptr @type_untypedlist, align 8
  %80 = load ptr, ptr %6, align 8
  store ptr %79, ptr %80, align 8
  %81 = load ptr, ptr %6, align 8
  %82 = getelementptr inbounds %struct.Expr_, ptr %81, i32 0, i32 3
  %83 = load i16, ptr %8, align 8
  %84 = and i16 %83, -256
  %85 = or i16 %84, 10
  store i16 %85, ptr %8, align 8
  %86 = load i16, ptr %8, align 8
  %87 = and i16 %86, -257
  store i16 %87, ptr %8, align 8
  %88 = load i16, ptr %8, align 8
  %89 = and i16 %88, -513
  store i16 %89, ptr %8, align 8
  %90 = getelementptr inbounds %struct.ExprConst, ptr %8, i32 0, i32 1
  %91 = load ptr, ptr %7, align 8
  store ptr %91, ptr %90, align 8
  call void @llvm.memcpy.p0.p0.i64(ptr align 8 %82, ptr align 8 %8, i64 32, i1 false)
  %92 = load ptr, ptr %6, align 8
  %93 = getelementptr inbounds %struct.Expr_, ptr %92, i32 0, i32 2
  %94 = load i16, ptr %93, align 8
  %95 = and i16 %94, -3841
  %96 = or i16 %95, 512
  store i16 %96, ptr %93, align 8
  br label %212

97:                                               ; preds = %64
  br label %98

98:                                               ; preds = %97, %51
  %99 = load ptr, ptr %25, align 8
  store ptr %99, ptr %15, align 8
  %100 = load ptr, ptr %15, align 8
  %101 = icmp ne ptr %100, null
  br i1 %101, label %103, label %102

102:                                              ; preds = %98
  store i32 0, ptr %14, align 4
  br label %108

103:                                              ; preds = %98
  %104 = load ptr, ptr %15, align 8
  store ptr %104, ptr %16, align 8
  %105 = load ptr, ptr %16, align 8
  %106 = getelementptr inbounds %struct.VHeader_, ptr %105, i64 -1
  %107 = load i32, ptr %106, align 4
  store i32 %107, ptr %14, align 4
  br label %108

108:                                              ; preds = %103, %102
  %109 = load i32, ptr %14, align 4
  store i32 %109, ptr %26, align 4
  %110 = load i32, ptr %26, align 4
  %111 = icmp ne i32 %110, 0
  br i1 %111, label %112, label %117

112:                                              ; preds = %108
  %113 = load i32, ptr %26, align 4
  %114 = zext i32 %113 to i64
  %115 = call ptr @vec_new_(i64 noundef 8, i64 noundef %114)
  %116 = getelementptr inbounds %struct.VHeader_, ptr %115, i64 1
  br label %118

117:                                              ; preds = %108
  br label %118

118:                                              ; preds = %117, %112
  %119 = phi ptr [ %116, %112 ], [ null, %117 ]
  store ptr %119, ptr %27, align 8
  store i32 0, ptr %28, align 4
  br label %120

120:                                              ; preds = %183, %118
  %121 = load i32, ptr %28, align 4
  %122 = load i32, ptr %26, align 4
  %123 = icmp ult i32 %121, %122
  br i1 %123, label %124, label %186

124:                                              ; preds = %120
  %125 = load ptr, ptr %25, align 8
  %126 = load i32, ptr %28, align 4
  %127 = zext i32 %126 to i64
  %128 = getelementptr inbounds ptr, ptr %125, i64 %127
  %129 = load ptr, ptr %128, align 8
  store ptr %129, ptr %29, align 8
  %130 = load ptr, ptr %21, align 8
  %131 = getelementptr inbounds %struct.Expr_, ptr %130, i32 0, i32 1
  %132 = getelementptr inbounds %union.SourceSpan, ptr %131, i32 0, i32 0
  %133 = load i64, ptr %132, align 8
  %134 = call ptr @expr_new(i32 noundef 14, i64 %133)
  store ptr %134, ptr %30, align 8
  %135 = load ptr, ptr @type_member, align 8
  %136 = load ptr, ptr %30, align 8
  %137 = getelementptr inbounds %struct.Expr_, ptr %136, i32 0, i32 0
  store ptr %135, ptr %137, align 8
  %138 = load ptr, ptr %30, align 8
  %139 = getelementptr inbounds %struct.Expr_, ptr %138, i32 0, i32 3
  %140 = load i16, ptr %31, align 8
  %141 = and i16 %140, -256
  %142 = or i16 %141, 11
  store i16 %142, ptr %31, align 8
  %143 = load i16, ptr %31, align 8
  %144 = and i16 %143, -257
  %145 = or i16 %144, 0
  store i16 %145, ptr %31, align 8
  %146 = load i16, ptr %31, align 8
  %147 = and i16 %146, -513
  %148 = or i16 %147, 0
  store i16 %148, ptr %31, align 8
  %149 = getelementptr inbounds %struct.ExprConst, ptr %31, i32 0, i32 1
  %150 = getelementptr inbounds %struct.anon.72, ptr %149, i32 0, i32 0
  %151 = load i32, ptr %24, align 4
  %152 = load ptr, ptr %29, align 8
  %153 = getelementptr inbounds %struct.Decl_, ptr %152, i32 0, i32 7
  %154 = load i64, ptr %153, align 8
  %155 = and i64 %154, 4294967295
  %156 = trunc i64 %155 to i32
  %157 = add i32 %151, %156
  store i32 %157, ptr %150, align 8
  %158 = getelementptr inbounds %struct.anon.72, ptr %149, i32 0, i32 1
  %159 = load i32, ptr %23, align 4
  store i32 %159, ptr %158, align 4
  %160 = getelementptr inbounds %struct.anon.72, ptr %149, i32 0, i32 2
  %161 = load ptr, ptr %29, align 8
  store ptr %161, ptr %160, align 8
  call void @llvm.memcpy.p0.p0.i64(ptr align 8 %139, ptr align 8 %31, i64 32, i1 false)
  br label %162

162:                                              ; preds = %124
  %163 = load ptr, ptr %27, align 8
  %164 = call ptr @expand_(ptr noundef %163, i64 noundef 8)
  store ptr %164, ptr %32, align 8
  %165 = load ptr, ptr %32, align 8
  store ptr %165, ptr %27, align 8
  %166 = load ptr, ptr %30, align 8
  %167 = load ptr, ptr %27, align 8
  %168 = load ptr, ptr %27, align 8
  store ptr %168, ptr %18, align 8
  %169 = load ptr, ptr %18, align 8
  %170 = icmp ne ptr %169, null
  br i1 %170, label %172, label %171

171:                                              ; preds = %162
  store i32 0, ptr %17, align 4
  br label %177

172:                                              ; preds = %162
  %173 = load ptr, ptr %18, align 8
  store ptr %173, ptr %19, align 8
  %174 = load ptr, ptr %19, align 8
  %175 = getelementptr inbounds %struct.VHeader_, ptr %174, i64 -1
  %176 = load i32, ptr %175, align 4
  store i32 %176, ptr %17, align 4
  br label %177

177:                                              ; preds = %172, %171
  %178 = load i32, ptr %17, align 4
  %179 = sub i32 %178, 1
  %180 = zext i32 %179 to i64
  %181 = getelementptr inbounds ptr, ptr %167, i64 %180
  store ptr %166, ptr %181, align 8
  br label %182

182:                                              ; preds = %177
  br label %183

183:                                              ; preds = %182
  %184 = load i32, ptr %28, align 4
  %185 = add i32 %184, 1
  store i32 %185, ptr %28, align 4
  br label %120, !llvm.loop !59

186:                                              ; preds = %120
  %187 = load ptr, ptr %21, align 8
  %188 = load ptr, ptr %27, align 8
  store ptr %187, ptr %9, align 8
  store ptr %188, ptr %10, align 8
  %189 = load ptr, ptr %9, align 8
  %190 = getelementptr inbounds %struct.Expr_, ptr %189, i32 0, i32 2
  %191 = load i16, ptr %190, align 8
  %192 = and i16 %191, -256
  %193 = or i16 %192, 14
  store i16 %193, ptr %190, align 8
  %194 = load ptr, ptr @type_untypedlist, align 8
  %195 = load ptr, ptr %9, align 8
  store ptr %194, ptr %195, align 8
  %196 = load ptr, ptr %9, align 8
  %197 = getelementptr inbounds %struct.Expr_, ptr %196, i32 0, i32 3
  %198 = load i16, ptr %11, align 8
  %199 = and i16 %198, -256
  %200 = or i16 %199, 10
  store i16 %200, ptr %11, align 8
  %201 = load i16, ptr %11, align 8
  %202 = and i16 %201, -257
  store i16 %202, ptr %11, align 8
  %203 = load i16, ptr %11, align 8
  %204 = and i16 %203, -513
  store i16 %204, ptr %11, align 8
  %205 = getelementptr inbounds %struct.ExprConst, ptr %11, i32 0, i32 1
  %206 = load ptr, ptr %10, align 8
  store ptr %206, ptr %205, align 8
  call void @llvm.memcpy.p0.p0.i64(ptr align 8 %197, ptr align 8 %11, i64 32, i1 false)
  %207 = load ptr, ptr %9, align 8
  %208 = getelementptr inbounds %struct.Expr_, ptr %207, i32 0, i32 2
  %209 = load i16, ptr %208, align 8
  %210 = and i16 %209, -3841
  %211 = or i16 %210, 512
  store i16 %211, ptr %208, align 8
  br label %212

212:                                              ; preds = %186, %72
  ret void
}