; Function Attrs: nounwind uwtable
define internal fastcc void @sema_create_const_membersof(ptr nocapture noundef %0, ptr nocapture noundef readonly %1, i32 noundef %2, i32 noundef %3) unnamed_addr #0 {
  %5 = load i32, ptr %1, align 8
  switch i32 %5, label %.thread2 [
    i32 31, label %.thread
    i32 29, label %11
    i32 27, label %11
    i32 26, label %11
  ]

.thread:                                          ; preds = %4
  %6 = getelementptr inbounds i8, ptr %1, i64 8
  %7 = load ptr, ptr %6, align 8
  %8 = load i32, ptr %7, align 8
  %9 = and i32 %8, -2
  %10 = icmp eq i32 %9, 26
  br i1 %10, label %11, label %.thread2

11:                                               ; preds = %4, %4, %4, %.thread
  %.pn.in = getelementptr inbounds i8, ptr %1, i64 56
  %.pn = load ptr, ptr %.pn.in, align 8
  %.066.in = getelementptr inbounds i8, ptr %.pn, i64 104
  %.066 = load ptr, ptr %.066.in, align 8
  %.not = icmp eq ptr %.066, null
  br i1 %.not, label %.thread2, label %12

12:                                               ; preds = %11
  %13 = getelementptr inbounds i8, ptr %.066, i64 -8
  %14 = load i32, ptr %13, align 4
  %.not71 = icmp eq i32 %14, 0
  br i1 %.not71, label %.thread2, label %.lr.ph

.lr.ph:                                           ; preds = %12
  %15 = zext i32 %14 to i64
  %16 = shl nuw nsw i64 %15, 3
  %17 = add nuw nsw i64 %16, 8
  %18 = tail call ptr @calloc_arena(i64 noundef %17) #13
  %19 = getelementptr inbounds i8, ptr %18, i64 4
  store i32 %14, ptr %19, align 4
  %20 = getelementptr inbounds i8, ptr %18, i64 8
  %21 = getelementptr inbounds i8, ptr %0, i64 8
  %wide.trip.count = zext i32 %14 to i64
  br label %22

22:                                               ; preds = %.lr.ph, %50
  %indvars.iv = phi i64 [ 0, %.lr.ph ], [ %indvars.iv.next, %50 ]
  %.0678 = phi ptr [ %20, %.lr.ph ], [ %53, %50 ]
  %23 = getelementptr inbounds ptr, ptr %.066, i64 %indvars.iv
  %24 = load ptr, ptr %23, align 8
  %25 = load i64, ptr %21, align 8
  %26 = tail call ptr @expr_new(i32 noundef 14, i64 %25) #13
  %27 = load ptr, ptr @type_member, align 8
  store ptr %27, ptr %26, align 8
  %28 = getelementptr inbounds i8, ptr %26, i64 24
  %29 = getelementptr inbounds i8, ptr %24, i64 48
  %30 = load i64, ptr %29, align 8
  %31 = trunc i64 %30 to i32
  %32 = add i32 %31, %3
  store i16 11, ptr %28, align 8
  %.sroa.73.0..sroa_idx = getelementptr inbounds i8, ptr %26, i64 32
  store i32 %32, ptr %.sroa.73.0..sroa_idx, align 8
  %.sroa.8.0..sroa_idx = getelementptr inbounds i8, ptr %26, i64 36
  store i32 %2, ptr %.sroa.8.0..sroa_idx, align 4
  %.sroa.9.0..sroa_idx = getelementptr inbounds i8, ptr %26, i64 40
  store ptr %24, ptr %.sroa.9.0..sroa_idx, align 8
  %33 = getelementptr inbounds i8, ptr %.0678, i64 -8
  %.phi.trans.insert.i = getelementptr inbounds i8, ptr %.0678, i64 -4
  %.pre.i = load i32, ptr %.phi.trans.insert.i, align 4
  %34 = load i32, ptr %33, align 4
  %35 = icmp eq i32 %34, %.pre.i
  br i1 %35, label %36, label %50

36:                                               ; preds = %22
  %37 = getelementptr inbounds i8, ptr %.0678, i64 -4
  %38 = shl i32 %.pre.i, 1
  %39 = zext i32 %38 to i64
  %40 = shl nuw nsw i64 %39, 3
  %41 = or disjoint i64 %40, 8
  %42 = tail call ptr @calloc_arena(i64 noundef %41) #13
  %43 = getelementptr inbounds i8, ptr %42, i64 4
  store i32 %38, ptr %43, align 4
  %44 = load i32, ptr %37, align 4
  %45 = zext i32 %44 to i64
  %46 = shl nuw nsw i64 %45, 3
  %47 = add nuw nsw i64 %46, 8
  tail call void @llvm.memcpy.p0.p0.i64(ptr noundef nonnull align 4 dereferenceable(1) %42, ptr noundef nonnull align 4 dereferenceable(1) %33, i64 %47, i1 false)
  %48 = load i32, ptr %43, align 4
  %49 = shl i32 %48, 1
  store i32 %49, ptr %43, align 4
  %.pre18.i = load i32, ptr %42, align 4
  br label %50

50:                                               ; preds = %22, %36
  %51 = phi i32 [ %.pre18.i, %36 ], [ %34, %22 ]
  %.1.i = phi ptr [ %42, %36 ], [ %33, %22 ]
  %52 = add i32 %51, 1
  store i32 %52, ptr %.1.i, align 4
  %53 = getelementptr inbounds i8, ptr %.1.i, i64 8
  %54 = zext i32 %51 to i64
  %55 = getelementptr inbounds ptr, ptr %53, i64 %54
  store ptr %26, ptr %55, align 8
  %indvars.iv.next = add nuw nsw i64 %indvars.iv, 1
  %exitcond.not = icmp eq i64 %indvars.iv.next, %wide.trip.count
  br i1 %exitcond.not, label %.thread2, label %22, !llvm.loop !65

.thread2:                                         ; preds = %50, %12, %11, %.thread, %4
  %.067.lcssa.sink = phi ptr [ null, %4 ], [ null, %.thread ], [ null, %12 ], [ null, %11 ], [ %53, %50 ]
  %56 = getelementptr inbounds i8, ptr %0, i64 16
  %57 = load i16, ptr %56, align 8
  %58 = load ptr, ptr @type_untypedlist, align 8
  store ptr %58, ptr %0, align 8
  %59 = getelementptr inbounds i8, ptr %0, i64 24
  store i16 10, ptr %59, align 8
  %.sroa.746.0..sroa_idx = getelementptr inbounds i8, ptr %0, i64 32
  store ptr %.067.lcssa.sink, ptr %.sroa.746.0..sroa_idx, align 8
  %60 = and i16 %57, -4096
  %61 = or disjoint i16 %60, 526
  store i16 %61, ptr %56, align 8
  ret void
}